target datalayout = "e-m:e-p270:32:32-p271:32:32-p272:64:64-i64:64-i128:128-f80:128-n8:16:32:64-S128"
target triple = "x86_64-pc-linux-gnu"

%"class.icu_77::MemoryPool.7" = type { i32, %"class.icu_77::MaybeStackArray.8" }
%"class.icu_77::MaybeStackArray.8" = type { ptr, i32, i8, [8 x ptr] }

; Function Attrs: mustprogress uwtable
define internal void @_ZN6icu_7715MaybeStackArrayIPN12_GLOBAL__N_118ExtensionListEntryELi8EE12releaseArrayEv(ptr noundef nonnull align 8 dereferenceable(80) %0) #1 align 2 {
  %2 = alloca ptr, align 8
  store ptr %0, ptr %2, align 8, !tbaa !175
  %3 = load ptr, ptr %2, align 8
  %4 = getelementptr inbounds nuw %"class.icu_77::MaybeStackArray.8", ptr %3, i32 0, i32 2
  %5 = load i8, ptr %4, align 4, !tbaa !179
  %6 = icmp ne i8 %5, 0
  br i1 %6, label %7, label %10

7:                                                ; preds = %1
  %8 = getelementptr inbounds nuw %"class.icu_77::MaybeStackArray.8", ptr %3, i32 0, i32 0
  %9 = load ptr, ptr %8, align 8, !tbaa !177
  call void @uprv_free_77(ptr noundef %9)
  br label %10

10:                                               ; preds = %7, %1
  ret void
}

; Function Attrs: mustprogress nounwind uwtable
define internal void @_ZN6icu_7715MaybeStackArrayIPN12_GLOBAL__N_118ExtensionListEntryELi8EED2Ev(ptr noundef nonnull align 8 dereferenceable(80) %0) unnamed_addr #0 align 2 personality ptr @__gxx_personality_v0 {
  %2 = alloca ptr, align 8
  store ptr %0, ptr %2, align 8, !tbaa !175
  %3 = load ptr, ptr %2, align 8
  invoke void @_ZN6icu_7715MaybeStackArrayIPN12_GLOBAL__N_118ExtensionListEntryELi8EE12releaseArrayEv(ptr noundef nonnull align 8 dereferenceable(80) %3)
          to label %4 unwind label %5

4:                                                ; preds = %1
  ret void

5:                                                ; preds = %1
  %6 = landingpad { ptr, i32 }
          catch ptr null
  %7 = extractvalue { ptr, i32 } %6, 0
  call void @__clang_call_terminate(ptr %7) #14
  unreachable
}

; Function Attrs: mustprogress nounwind uwtable
define internal noundef nonnull align 8 dereferenceable(8) ptr @_ZN6icu_7715MaybeStackArrayIPN12_GLOBAL__N_118ExtensionListEntryELi8EEixEl(ptr noundef nonnull align 8 dereferenceable(80) %0, i64 noundef %1) #0 align 2 {
  %3 = alloca ptr, align 8
  %4 = alloca i64, align 8
  store ptr %0, ptr %3, align 8, !tbaa !175
  store i64 %1, ptr %4, align 8, !tbaa !18
  %5 = load ptr, ptr %3, align 8
  %6 = getelementptr inbounds nuw %"class.icu_77::MaybeStackArray.8", ptr %5, i32 0, i32 0
  %7 = load ptr, ptr %6, align 8, !tbaa !177
  %8 = load i64, ptr %4, align 8, !tbaa !18
  %9 = getelementptr inbounds ptr, ptr %7, i64 %8
  ret ptr %9
}

; Function Attrs: mustprogress nounwind uwtable
define internal void @_ZN6icu_7710MemoryPoolIN12_GLOBAL__N_118ExtensionListEntryELi8EED2Ev(ptr noundef nonnull align 8 dereferenceable(88) %0) unnamed_addr #0 align 2 {
  %2 = alloca ptr, align 8
  %3 = alloca i32, align 4
  store ptr %0, ptr %2, align 8, !tbaa !149
  %4 = load ptr, ptr %2, align 8
  call void @llvm.lifetime.start.p0(i64 4, ptr %3) #12
  store i32 0, ptr %3, align 4, !tbaa !14
  br label %5

5:                                                ; preds = %20, %1
  %6 = load i32, ptr %3, align 4, !tbaa !14
  %7 = getelementptr inbounds nuw %"class.icu_77::MemoryPool.7", ptr %4, i32 0, i32 0
  %8 = load i32, ptr %7, align 8, !tbaa !151
  %9 = icmp slt i32 %6, %8
  br i1 %9, label %11, label %10

10:                                               ; preds = %5
  call void @llvm.lifetime.end.p0(i64 4, ptr %3) #12
  br label %23

11:                                               ; preds = %5
  %12 = getelementptr inbounds nuw %"class.icu_77::MemoryPool.7", ptr %4, i32 0, i32 1
  %13 = load i32, ptr %3, align 4, !tbaa !14
  %14 = sext i32 %13 to i64
  %15 = call noundef nonnull align 8 dereferenceable(8) ptr @_ZN6icu_7715MaybeStackArrayIPN12_GLOBAL__N_118ExtensionListEntryELi8EEixEl(ptr noundef nonnull align 8 dereferenceable(80) %12, i64 noundef %14)
  %16 = load ptr, ptr %15, align 8, !tbaa !74
  %17 = icmp eq ptr %16, null
  br i1 %17, label %19, label %18

18:                                               ; preds = %11
  call void @_ZN6icu_777UMemorydlEPv(ptr noundef %16) #12
  br label %19

19:                                               ; preds = %18, %11
  br label %20

20:                                               ; preds = %19
  %21 = load i32, ptr %3, align 4, !tbaa !14
  %22 = add nsw i32 %21, 1
  store i32 %22, ptr %3, align 4, !tbaa !14
  br label %5, !llvm.loop !168

23:                                               ; preds = %10
  %24 = getelementptr inbounds nuw %"class.icu_77::MemoryPool.7", ptr %4, i32 0, i32 1
  call void @_ZN6icu_7715MaybeStackArrayIPN12_GLOBAL__N_118ExtensionListEntryELi8EED2Ev(ptr noundef nonnull align 8 dereferenceable(80) %24) #12
  ret void
}